; Function Attrs: cold mustprogress uwtable
define noundef i32 @_Z16gro_first_x_or_vP8_IO_FILEP10t_trxframe(ptr noundef %0, ptr noundef %1) local_unnamed_addr #13 personality ptr @__gxx_personality_v0 {
  %3 = alloca [4096 x i8], align 16
  %4 = alloca %"class.std::__cxx11::basic_string", align 8
  %5 = alloca %"class.std::allocator", align 1
  %6 = alloca %"class.std::filesystem::__cxx11::path", align 8
  call void @llvm.lifetime.start.p0(i64 4096, ptr nonnull %3) #19
  tail call void @_Z7frewindP8_IO_FILE(ptr noundef %0)
  %7 = load ptr, ptr @stderr, align 8, !tbaa !30
  %8 = tail call i64 @fwrite(ptr nonnull @.str.27, i64 28, i64 1, ptr %7) #24
  %9 = getelementptr inbounds nuw i8, ptr %1, i64 8
  call fastcc void @_ZL15get_coordnum_fpP8_IO_FILEPcPi(ptr noundef %0, ptr noundef %3, ptr noundef nonnull %9)
  call void @_Z7frewindP8_IO_FILE(ptr noundef %0)
  %10 = load ptr, ptr @stderr, align 8, !tbaa !30
  %11 = load i32, ptr %9, align 8, !tbaa !64
  %12 = call i32 (ptr, ptr, ...) @fprintf(ptr noundef %10, ptr noundef nonnull @.str.28, ptr noundef nonnull %3, i32 noundef %11) #22
  %13 = load i32, ptr %9, align 8, !tbaa !64
  %14 = icmp eq i32 %13, 0
  br i1 %14, label %15, label %31

15:                                               ; preds = %2
  call void @llvm.lifetime.start.p0(i64 32, ptr nonnull %4) #19
  call void @llvm.lifetime.start.p0(i64 1, ptr nonnull %5) #19
  call void @_ZNSt7__cxx1112basic_stringIcSt11char_traitsIcESaIcEEC2IS3_EEPKcRKS3_(ptr noundef nonnull align 8 dereferenceable(32) %4, ptr noundef nonnull @.str.30, ptr noundef nonnull align 1 dereferenceable(1) %5)
  call void @llvm.lifetime.start.p0(i64 40, ptr nonnull %6) #19
  invoke void @_ZNSt10filesystem7__cxx114pathC2IA122_cS1_EERKT_NS1_6formatE(ptr noundef nonnull align 8 dereferenceable(40) %6, ptr noundef nonnull align 1 dereferenceable(122) @.str.2, i8 noundef zeroext 2)
          to label %16 unwind label %18

16:                                               ; preds = %15
  invoke void @_Z18gmx_error_functionPKcRKNSt7__cxx1112basic_stringIcSt11char_traitsIcESaIcEEERKNSt10filesystem7__cxx114pathEi(ptr noundef nonnull @.str.29, ptr noundef nonnull align 8 dereferenceable(32) %4, ptr noundef nonnull align 8 dereferenceable(40) %6, i32 noundef 439) #20
          to label %17 unwind label %20

17:                                               ; preds = %16
  unreachable

18:                                               ; preds = %15
  %19 = landingpad { ptr, i32 }
          cleanup
  br label %22

20:                                               ; preds = %16
  %21 = landingpad { ptr, i32 }
          cleanup
  call void @_ZNSt10filesystem7__cxx114pathD2Ev(ptr noundef nonnull align 8 dereferenceable(40) %6) #19
  br label %22

22:                                               ; preds = %20, %18
  %.pn = phi { ptr, i32 } [ %21, %20 ], [ %19, %18 ]
  call void @llvm.lifetime.end.p0(i64 40, ptr nonnull %6) #19
  %23 = load ptr, ptr %4, align 8, !tbaa !12
  %24 = getelementptr inbounds nuw i8, ptr %4, i64 16
  %25 = icmp eq ptr %23, %24
  br i1 %25, label %_ZNKSt7__cxx1112basic_stringIcSt11char_traitsIcESaIcEE11_M_is_localEv.exit.thread.i.i, label %_ZNKSt7__cxx1112basic_stringIcSt11char_traitsIcESaIcEE11_M_is_localEv.exit.i.i

_ZNKSt7__cxx1112basic_stringIcSt11char_traitsIcESaIcEE11_M_is_localEv.exit.thread.i.i: ; preds = %22
  %26 = getelementptr inbounds nuw i8, ptr %4, i64 8
  %27 = load i64, ptr %26, align 8, !tbaa !15
  %28 = icmp ult i64 %27, 16
  call void @llvm.assume(i1 %28)
  br label %_ZNSt7__cxx1112basic_stringIcSt11char_traitsIcESaIcEED2Ev.exit

_ZNKSt7__cxx1112basic_stringIcSt11char_traitsIcESaIcEE11_M_is_localEv.exit.i.i: ; preds = %22
  %29 = load i64, ptr %24, align 8, !tbaa !14
  %30 = add i64 %29, 1
  call void @_ZdlPvm(ptr noundef %23, i64 noundef %30) #21
  br label %_ZNSt7__cxx1112basic_stringIcSt11char_traitsIcESaIcEED2Ev.exit

_ZNSt7__cxx1112basic_stringIcSt11char_traitsIcESaIcEED2Ev.exit: ; preds = %_ZNKSt7__cxx1112basic_stringIcSt11char_traitsIcESaIcEE11_M_is_localEv.exit.i.i, %_ZNKSt7__cxx1112basic_stringIcSt11char_traitsIcESaIcEE11_M_is_localEv.exit.thread.i.i
  call void @llvm.lifetime.end.p0(i64 1, ptr nonnull %5) #19
  call void @llvm.lifetime.end.p0(i64 32, ptr nonnull %4) #19
  call void @llvm.lifetime.end.p0(i64 4096, ptr nonnull %3) #19
  resume { ptr, i32 } %.pn

31:                                               ; preds = %2
  %32 = getelementptr inbounds nuw i8, ptr %1, i64 72
  %33 = sext i32 %13 to i64
  %34 = call noundef ptr @_Z11save_callocPKcS0_imm(ptr noundef nonnull @.str.31, ptr noundef nonnull @.str.2, i32 noundef 442, i64 noundef range(i64 -2147483648, 2147483648) %33, i64 noundef 12)
  store ptr %34, ptr %32, align 8, !tbaa !86
  %35 = getelementptr inbounds nuw i8, ptr %1, i64 88
  %36 = load i32, ptr %9, align 8, !tbaa !64
  %37 = sext i32 %36 to i64
  %38 = call noundef ptr @_Z11save_callocPKcS0_imm(ptr noundef nonnull @.str.32, ptr noundef nonnull @.str.2, i32 noundef 443, i64 noundef range(i64 -2147483648, 2147483648) %37, i64 noundef 12)
  store ptr %38, ptr %35, align 8, !tbaa !86
  %39 = call noundef zeroext i1 @_Z15gro_next_x_or_vP8_IO_FILEP10t_trxframe(ptr noundef %0, ptr noundef nonnull %1)
  %40 = load i32, ptr %9, align 8, !tbaa !64
  call void @llvm.lifetime.end.p0(i64 4096, ptr nonnull %3) #19
  ret i32 %40
}